(lp0
(lp1
I0
aI0
aI0
aI0
aI0
aI0
aI1
aa(lp2
I0
aI0
aI0
aI0
aI-1
aI0
aI1
aa(lp3
I0
aI0
aI0
aI1
aI0
aI0
aI0
aa(lp4
I-1
aI0
aI0
aI1
aI0
aI0
aI0
aa(lp5
I0
aI0
aI0
aI0
aI1
aI0
aI0
aa(lp6
I0
aI0
aI0
aI0
aI-1
aI1
aI0
aag1
a(lp7
I0
aI0
aI0
aI0
aI0
aI1
aI0
aa(lp8
I-1
aI1
aI-1
aI1
aI-1
aI1
aI1
aa(lp9
I-1
aI0
aI-1
aI1
aI-1
aI1
aI1
aa(lp10
I0
aI0
aI0
aI1
aI-1
aI0
aI1
aa(lp11
I1
aI0
aI1
aI-1
aI1
aI0
aI-1
aa(lp12
I-1
aI0
aI0
aI1
aI-1
aI0
aI1
aa(lp13
I1
aI0
aI0
aI0
aI0
aI0
aI0
aa(lp14
I0
aI1
aI0
aI0
aI0
aI0
aI0
aa(lp15
I-1
aI1
aI-1
aI1
aI0
aI0
aI1
aa(lp16
I-1
aI0
aI0
aI1
aI0
aI0
aI1
aa(lp17
I0
aI0
aI1
aI0
aI0
aI0
aI0
aa(lp18
I-1
aI0
aI-1
aI1
aI0
aI0
aI1
aa.