(lp0
(lp1
I-1
aI0
aI0
aI1
aI0
aI0
aI0
aa(lp2
I0
aI0
aI0
aI0
aI0
aI0
aI1
aa(lp3
I0
aI0
aI0
aI-1
aI1
aI0
aI0
aa(lp4
I1
aI0
aI0
aI0
aI0
aI0
aI0
aa(lp5
I1
aI0
aI-1
aI-1
aI1
aI1
aI-1
aa(lp6
I0
aI0
aI0
aI0
aI1
aI0
aI0
aa(lp7
I0
aI1
aI0
aI0
aI0
aI0
aI0
aa(lp8
I-1
aI-1
aI0
aI1
aI0
aI0
aI1
aa(lp9
I0
aI0
aI0
aI1
aI0
aI0
aI0
aa(lp10
I0
aI0
aI0
aI1
aI-1
aI0
aI1
aa(lp11
I0
aI0
aI0
aI1
aI-1
aI-1
aI1
aa(lp12
I0
aI0
aI1
aI1
aI-1
aI-1
aI1
aag2
a(lp13
I-1
aI0
aI0
aI1
aI0
aI0
aI1
aa(lp14
I0
aI0
aI1
aI0
aI0
aI0
aI0
aa(lp15
I1
aI1
aI0
aI-1
aI1
aI0
aI-1
aa(lp16
I1
aI1
aI-1
aI-1
aI1
aI1
aI-1
aa(lp17
I0
aI0
aI0
aI0
aI0
aI1
aI0
aa(lp18
I1
aI1
aI-1
aI-1
aI1
aI0
aI-1
aa.